#include <math.h>
#include <stdio.h>
#include <stdlib.h>
#include <string.h>

int main()
{
char a[200]={0},b[200]={0};
int i,j,k,l,n;
scanf("%d",&n);
for(k=0;k<n;k++)
{
scanf("%s",a);
l=strlen(a);
for(i=0;i<l;i++)
if(a[i]=='(')
b[i]='$';
else if(a[i]==')')
b[i]='?';
else
b[i]=' ';
for(i=0;i<l;i++)
if(b[i]=='?')
{
for(j=i-1;j>=0;j--)
if(b[j]=='$')
{b[i]=b[j]=' ';break;}

}
puts(a);
for(i=0;i<l;i++)
printf("%c",b[i]);
printf("\n");
}
}